target datalayout = "e-m:e-p270:32:32-p271:32:32-p272:64:64-i64:64-i128:128-f80:128-n8:16:32:64-S128"
target triple = "x86_64-pc-linux-gnu"

@.str.1 = private unnamed_addr constant [19 x i8] c"../qemu/blockdev.c\00", align 1
@__func__.qmp_block_resize = private unnamed_addr constant [17 x i8] c"qmp_block_resize\00", align 1
@.str.87 = private unnamed_addr constant [26 x i8] c"Parameter '%s' expects %s\00", align 1
@.str.88 = private unnamed_addr constant [5 x i8] c"size\00", align 1
@.str.89 = private unnamed_addr constant [10 x i8] c"a >0 size\00", align 1

; Function Attrs: nounwind sspstrong uwtable
define dso_local void @qmp_block_resize(ptr noundef %0, ptr noundef %1, i64 noundef %2, ptr noundef %3) #0 {
  %5 = alloca ptr, align 8
  %6 = alloca ptr, align 8
  %7 = alloca i64, align 8
  %8 = alloca ptr, align 8
  %9 = alloca ptr, align 8
  %10 = alloca ptr, align 8
  %11 = alloca ptr, align 8
  %12 = alloca ptr, align 8
  %13 = alloca i32, align 4
  store ptr %0, ptr %5, align 8
  store ptr %1, ptr %6, align 8
  store i64 %2, ptr %7, align 8
  store ptr %3, ptr %8, align 8
  call void @llvm.lifetime.start.p0(i64 8, ptr %9) #16
  store ptr null, ptr %9, align 8
  call void @llvm.lifetime.start.p0(i64 8, ptr %10) #16
  store ptr null, ptr %10, align 8, !annotation !4
  call void @llvm.lifetime.start.p0(i64 8, ptr %11) #16
  store ptr null, ptr %11, align 8, !annotation !4
  call void @llvm.lifetime.start.p0(i64 8, ptr %12) #16
  store ptr null, ptr %12, align 8, !annotation !4
  %14 = load ptr, ptr %5, align 8
  %15 = load ptr, ptr %6, align 8
  %16 = call ptr @bdrv_lookup_bs(ptr noundef %14, ptr noundef %15, ptr noundef %9)
  store ptr %16, ptr %11, align 8
  %17 = load ptr, ptr %9, align 8
  %18 = icmp ne ptr %17, null
  br i1 %18, label %19, label %22

19:                                               ; preds = %4
  %20 = load ptr, ptr %8, align 8
  %21 = load ptr, ptr %9, align 8
  call void @error_propagate(ptr noundef %20, ptr noundef %21)
  store i32 1, ptr %13, align 4
  br label %51

22:                                               ; preds = %4
  %23 = load i64, ptr %7, align 8
  %24 = icmp slt i64 %23, 0
  br i1 %24, label %25, label %27

25:                                               ; preds = %22
  %26 = load ptr, ptr %8, align 8
  call void (ptr, ptr, i32, ptr, ptr, ...) @error_setg_internal(ptr noundef %26, ptr noundef @.str.1, i32 noundef 2269, ptr noundef @__func__.qmp_block_resize, ptr noundef @.str.87, ptr noundef @.str.88, ptr noundef @.str.89)
  store i32 1, ptr %13, align 4
  br label %51

27:                                               ; preds = %22
  call void @bdrv_graph_co_rdlock()
  %28 = load ptr, ptr %11, align 8
  %29 = load ptr, ptr %8, align 8
  %30 = call zeroext i1 @bdrv_op_is_blocked(ptr noundef %28, i32 noundef 12, ptr noundef %29)
  br i1 %30, label %31, label %32

31:                                               ; preds = %27
  call void @bdrv_graph_co_rdunlock()
  store i32 1, ptr %13, align 4
  br label %51

32:                                               ; preds = %27
  call void @bdrv_graph_co_rdunlock()
  %33 = load ptr, ptr %11, align 8
  %34 = load ptr, ptr %8, align 8
  %35 = call ptr @blk_co_new_with_bs(ptr noundef %33, i64 noundef 8, i64 noundef 15, ptr noundef %34)
  store ptr %35, ptr %10, align 8
  %36 = load ptr, ptr %10, align 8
  %37 = icmp ne ptr %36, null
  br i1 %37, label %39, label %38

38:                                               ; preds = %32
  store i32 1, ptr %13, align 4
  br label %51

39:                                               ; preds = %32
  %40 = load ptr, ptr %11, align 8
  call void @bdrv_drained_begin(ptr noundef %40)
  %41 = load ptr, ptr %11, align 8
  %42 = call ptr @bdrv_co_enter(ptr noundef %41)
  store ptr %42, ptr %12, align 8
  %43 = load ptr, ptr %10, align 8
  %44 = load i64, ptr %7, align 8
  %45 = load ptr, ptr %8, align 8
  %46 = call i32 @blk_co_truncate(ptr noundef %43, i64 noundef %44, i1 noundef zeroext false, i32 noundef 0, i32 noundef 0, ptr noundef %45)
  %47 = load ptr, ptr %11, align 8
  %48 = load ptr, ptr %12, align 8
  call void @bdrv_co_leave(ptr noundef %47, ptr noundef %48)
  %49 = load ptr, ptr %11, align 8
  call void @bdrv_drained_end(ptr noundef %49)
  %50 = load ptr, ptr %10, align 8
  call void @blk_co_unref(ptr noundef %50)
  store i32 0, ptr %13, align 4
  br label %51

51:                                               ; preds = %39, %38, %31, %25, %19
  call void @llvm.lifetime.end.p0(i64 8, ptr %12) #16
  call void @llvm.lifetime.end.p0(i64 8, ptr %11) #16
  call void @llvm.lifetime.end.p0(i64 8, ptr %10) #16
  call void @llvm.lifetime.end.p0(i64 8, ptr %9) #16
  %52 = load i32, ptr %13, align 4
  switch i32 %52, label %54 [
    i32 0, label %53
    i32 1, label %53
  ]

53:                                               ; preds = %51, %51
  ret void

54:                                               ; preds = %51
  unreachable
}