; Function Attrs: nounwind sspstrong uwtable
define dso_local void @qmp_block_resize(ptr noundef %0, ptr noundef %1, i64 noundef %2, ptr noundef %3) #0 {
  %5 = alloca ptr, align 8
  call void @llvm.lifetime.start.p0(i64 8, ptr nonnull %5) #14
  store ptr null, ptr %5, align 8
  %6 = call ptr @bdrv_lookup_bs(ptr noundef %0, ptr noundef %1, ptr noundef nonnull %5) #14
  %7 = load ptr, ptr %5, align 8
  %.not = icmp eq ptr %7, null
  br i1 %.not, label %9, label %8

8:                                                ; preds = %4
  call void @error_propagate(ptr noundef %3, ptr noundef nonnull %7) #14
  br label %19

9:                                                ; preds = %4
  %10 = icmp slt i64 %2, 0
  br i1 %10, label %11, label %12

11:                                               ; preds = %9
  call void (ptr, ptr, i32, ptr, ptr, ...) @error_setg_internal(ptr noundef %3, ptr noundef nonnull @.str.1, i32 noundef 2269, ptr noundef nonnull @__func__.qmp_block_resize, ptr noundef nonnull @.str.87, ptr noundef nonnull @.str.88, ptr noundef nonnull @.str.89) #14
  br label %19

12:                                               ; preds = %9
  call void @bdrv_graph_co_rdlock() #14
  %13 = call zeroext i1 @bdrv_op_is_blocked(ptr noundef %6, i32 noundef 12, ptr noundef %3) #14
  call void @bdrv_graph_co_rdunlock() #14
  br i1 %13, label %19, label %14

14:                                               ; preds = %12
  %15 = call ptr @blk_co_new_with_bs(ptr noundef %6, i64 noundef 8, i64 noundef 15, ptr noundef %3) #14
  %.not20 = icmp eq ptr %15, null
  br i1 %.not20, label %19, label %16

16:                                               ; preds = %14
  call void @bdrv_drained_begin(ptr noundef %6) #14
  %17 = call ptr @bdrv_co_enter(ptr noundef %6) #14
  %18 = call i32 @blk_co_truncate(ptr noundef nonnull %15, i64 noundef %2, i1 noundef zeroext false, i32 noundef 0, i32 noundef 0, ptr noundef %3) #14
  call void @bdrv_co_leave(ptr noundef %6, ptr noundef %17) #14
  call void @bdrv_drained_end(ptr noundef %6) #14
  call void @blk_co_unref(ptr noundef nonnull %15) #14
  br label %19

19:                                               ; preds = %12, %14, %16, %11, %8
  call void @llvm.lifetime.end.p0(i64 8, ptr nonnull %5) #14
  ret void
}